target datalayout = "e-m:e-p270:32:32-p271:32:32-p272:64:64-i64:64-i128:128-f80:128-n8:16:32:64-S128"
target triple = "x86_64-unknown-linux-gnu"

%"class.folly::Range" = type { ptr, ptr }
%"class.std::__cxx11::basic_string" = type { %"struct.std::__cxx11::basic_string<char>::_Alloc_hider", i64, %union.anon }
%"struct.std::__cxx11::basic_string<char>::_Alloc_hider" = type { ptr }
%union.anon = type { i64, [8 x i8] }
%"struct.std::pair" = type <{ ptr, i32, [4 x i8] }>
%"struct.std::pair.0" = type { ptr, i64 }

; Function Attrs: mustprogress nounwind uwtable
define linkonce_odr void @_ZNSt4pairIPKcmEC2IS1_mTnNSt9enable_ifIXaaclsr5_PCCPE22_MoveConstructiblePairIT_T0_EEclsr5_PCCPE30_ImplicitlyMoveConvertiblePairIS5_S6_EEEbE4typeELb1EEEOS5_OS6_(ptr noundef nonnull align 8 dereferenceable(16) %this, ptr noundef nonnull align 8 dereferenceable(8) %__x, ptr noundef nonnull align 8 dereferenceable(8) %__y) unnamed_addr #0 comdat align 2 {
entry:
  %this.addr = alloca ptr, align 8
  %__x.addr = alloca ptr, align 8
  %__y.addr = alloca ptr, align 8
  store ptr %this, ptr %this.addr, align 8
  store ptr %__x, ptr %__x.addr, align 8
  store ptr %__y, ptr %__y.addr, align 8
  %this1 = load ptr, ptr %this.addr, align 8
  %first = getelementptr inbounds %"struct.std::pair.0", ptr %this1, i32 0, i32 0
  %0 = load ptr, ptr %__x.addr, align 8
  %1 = load ptr, ptr %0, align 8
  store ptr %1, ptr %first, align 8
  %second = getelementptr inbounds %"struct.std::pair.0", ptr %this1, i32 0, i32 1
  %2 = load ptr, ptr %__y.addr, align 8
  %3 = load i64, ptr %2, align 8
  store i64 %3, ptr %second, align 8
  ret void
}

; Function Attrs: mustprogress uwtable
define void @_ZN8facebook5velox8encoding6Base649decodeUrlERKSt4pairIPKciERNSt7__cxx1112basic_stringIcSt11char_traitsIcESaIcEEE(ptr noundef nonnull align 8 dereferenceable(12) %payload, ptr noundef nonnull align 8 dereferenceable(32) %output) #1 align 2 {
entry:
  %payload.addr = alloca ptr, align 8
  %output.addr = alloca ptr, align 8
  %out_len = alloca i64, align 8
  store ptr %payload, ptr %payload.addr, align 8
  store ptr %output, ptr %output.addr, align 8
  %0 = load ptr, ptr %payload.addr, align 8
  %second = getelementptr inbounds %"struct.std::pair", ptr %0, i32 0, i32 1
  %1 = load i32, ptr %second, align 8
  %add = add nsw i32 %1, 3
  %div = sdiv i32 %add, 4
  %mul = mul nsw i32 %div, 3
  %conv = sext i32 %mul to i64
  store i64 %conv, ptr %out_len, align 8
  %2 = load ptr, ptr %output.addr, align 8
  %3 = load i64, ptr %out_len, align 8
  call void @_ZNSt7__cxx1112basic_stringIcSt11char_traitsIcESaIcEE6resizeEmc(ptr noundef nonnull align 8 dereferenceable(32) %2, i64 noundef %3, i8 noundef signext 0)
  %4 = load ptr, ptr %payload.addr, align 8
  %first = getelementptr inbounds %"struct.std::pair", ptr %4, i32 0, i32 0
  %5 = load ptr, ptr %first, align 8
  %6 = load ptr, ptr %payload.addr, align 8
  %second1 = getelementptr inbounds %"struct.std::pair", ptr %6, i32 0, i32 1
  %7 = load i32, ptr %second1, align 8
  %conv2 = sext i32 %7 to i64
  %8 = load ptr, ptr %output.addr, align 8
  %call = call noundef nonnull align 1 dereferenceable(1) ptr @_ZNSt7__cxx1112basic_stringIcSt11char_traitsIcESaIcEEixEm(ptr noundef nonnull align 8 dereferenceable(32) %8, i64 noundef 0)
  %9 = load i64, ptr %out_len, align 8
  %call3 = call noundef i64 @_ZN8facebook5velox8encoding6Base6410decodeImplEPKcmPcmRKSt5arrayIhLm256EEb(ptr noundef %5, i64 noundef %conv2, ptr noundef %call, i64 noundef %9, ptr noundef nonnull align 1 dereferenceable(256) @_ZN8facebook5velox8encodingL27kBase64UrlReverseIndexTableE, i1 noundef zeroext false)
  store i64 %call3, ptr %out_len, align 8
  %10 = load ptr, ptr %output.addr, align 8
  %11 = load i64, ptr %out_len, align 8
  call void @_ZNSt7__cxx1112basic_stringIcSt11char_traitsIcESaIcEE6resizeEm(ptr noundef nonnull align 8 dereferenceable(32) %10, i64 noundef %11)
  ret void
}

; Function Attrs: mustprogress nounwind uwtable
define linkonce_odr void @_ZNSt4pairIPKciEC2IS1_mTnNSt9enable_ifIXaaclsr6_PCCFPIT_T0_EE22_MoveConstructiblePairIS5_S6_EEclsr6_PCCFPIS5_S6_EE30_ImplicitlyMoveConvertiblePairIS5_S6_EEEbE4typeELb1EEEOS_IS5_S6_E(ptr noundef nonnull align 8 dereferenceable(12) %this, ptr noundef nonnull align 8 dereferenceable(16) %__p) unnamed_addr #0 comdat align 2 {
entry:
  %this.addr = alloca ptr, align 8
  %__p.addr = alloca ptr, align 8
  store ptr %this, ptr %this.addr, align 8
  store ptr %__p, ptr %__p.addr, align 8
  %this1 = load ptr, ptr %this.addr, align 8
  %first = getelementptr inbounds %"struct.std::pair", ptr %this1, i32 0, i32 0
  %0 = load ptr, ptr %__p.addr, align 8
  %first2 = getelementptr inbounds %"struct.std::pair.0", ptr %0, i32 0, i32 0
  %1 = load ptr, ptr %first2, align 8
  store ptr %1, ptr %first, align 8
  %second = getelementptr inbounds %"struct.std::pair", ptr %this1, i32 0, i32 1
  %2 = load ptr, ptr %__p.addr, align 8
  %second3 = getelementptr inbounds %"struct.std::pair.0", ptr %2, i32 0, i32 1
  %3 = load i64, ptr %second3, align 8
  %conv = trunc i64 %3 to i32
  store i32 %conv, ptr %second, align 8
  ret void
}

; Function Attrs: mustprogress uwtable
define linkonce_odr { ptr, i64 } @_ZSt9make_pairIPKcmESt4pairINSt25__strip_reference_wrapperINSt5decayIT_E4typeEE6__typeENS3_INS4_IT0_E4typeEE6__typeEEOS5_OSA_(ptr noundef nonnull align 8 dereferenceable(8) %__x, ptr noundef nonnull align 8 dereferenceable(8) %__y) #1 comdat {
entry:
  %retval = alloca %"struct.std::pair.0", align 8
  %__x.addr = alloca ptr, align 8
  %__y.addr = alloca ptr, align 8
  store ptr %__x, ptr %__x.addr, align 8
  store ptr %__y, ptr %__y.addr, align 8
  %0 = load ptr, ptr %__x.addr, align 8
  %1 = load ptr, ptr %__y.addr, align 8
  call void @_ZNSt4pairIPKcmEC2IS1_mTnNSt9enable_ifIXaaclsr5_PCCPE22_MoveConstructiblePairIT_T0_EEclsr5_PCCPE30_ImplicitlyMoveConvertiblePairIS5_S6_EEEbE4typeELb1EEEOS5_OS6_(ptr noundef nonnull align 8 dereferenceable(16) %retval, ptr noundef nonnull align 8 dereferenceable(8) %0, ptr noundef nonnull align 8 dereferenceable(8) %1)
  %2 = load { ptr, i64 }, ptr %retval, align 8
  ret { ptr, i64 } %2
}

; Function Attrs: mustprogress nounwind uwtable
define linkonce_odr noundef i64 @_ZNK5folly5RangeIPKcE4sizeEv(ptr noundef nonnull align 8 dereferenceable(16) %this) #0 comdat align 2 {
entry:
  %this.addr = alloca ptr, align 8
  store ptr %this, ptr %this.addr, align 8
  %this1 = load ptr, ptr %this.addr, align 8
  %e_ = getelementptr inbounds %"class.folly::Range", ptr %this1, i32 0, i32 1
  %0 = load ptr, ptr %e_, align 8
  %b_ = getelementptr inbounds %"class.folly::Range", ptr %this1, i32 0, i32 0
  %1 = load ptr, ptr %b_, align 8
  %sub.ptr.lhs.cast = ptrtoint ptr %0 to i64
  %sub.ptr.rhs.cast = ptrtoint ptr %1 to i64
  %sub.ptr.sub = sub i64 %sub.ptr.lhs.cast, %sub.ptr.rhs.cast
  ret i64 %sub.ptr.sub
}

; Function Attrs: mustprogress nounwind uwtable
define linkonce_odr noundef ptr @_ZNK5folly5RangeIPKcE4dataEv(ptr noundef nonnull align 8 dereferenceable(16) %this) #0 comdat align 2 {
entry:
  %this.addr = alloca ptr, align 8
  store ptr %this, ptr %this.addr, align 8
  %this1 = load ptr, ptr %this.addr, align 8
  %b_ = getelementptr inbounds %"class.folly::Range", ptr %this1, i32 0, i32 0
  %0 = load ptr, ptr %b_, align 8
  ret ptr %0
}

; Function Attrs: mustprogress uwtable
define void @_ZN8facebook5velox8encoding6Base649decodeUrlB5cxx11EN5folly5RangeIPKcEE(ptr noalias sret(%"class.std::__cxx11::basic_string") align 8 %agg.result, ptr %encoded.coerce0, ptr %encoded.coerce1) #1 align 2 personality ptr @__gxx_personality_v0 {
entry:
  %result.ptr = alloca ptr, align 8
  %encoded = alloca %"class.folly::Range", align 8
  %nrvo = alloca i1, align 1
  %ref.tmp = alloca %"struct.std::pair", align 8
  %ref.tmp1 = alloca %"struct.std::pair.0", align 8
  %ref.tmp2 = alloca ptr, align 8
  %exn.slot = alloca ptr, align 8
  %ehselector.slot = alloca i32, align 4
  %ref.tmp3 = alloca i64, align 8
  store ptr %agg.result, ptr %result.ptr, align 8
  %0 = getelementptr inbounds { ptr, ptr }, ptr %encoded, i32 0, i32 0
  store ptr %encoded.coerce0, ptr %0, align 8
  %1 = getelementptr inbounds { ptr, ptr }, ptr %encoded, i32 0, i32 1
  store ptr %encoded.coerce1, ptr %1, align 8
  store i1 false, ptr %nrvo, align 1
  call void @_ZNSt7__cxx1112basic_stringIcSt11char_traitsIcESaIcEEC1Ev(ptr noundef nonnull align 8 dereferenceable(32) %agg.result) #8
  %call = invoke noundef ptr @_ZNK5folly5RangeIPKcE4dataEv(ptr noundef nonnull align 8 dereferenceable(16) %encoded)
          to label %invoke.cont unwind label %lpad

invoke.cont:                                      ; preds = %entry
  store ptr %call, ptr %ref.tmp2, align 8
  %call5 = invoke noundef i64 @_ZNK5folly5RangeIPKcE4sizeEv(ptr noundef nonnull align 8 dereferenceable(16) %encoded)
          to label %invoke.cont4 unwind label %lpad

invoke.cont4:                                     ; preds = %invoke.cont
  store i64 %call5, ptr %ref.tmp3, align 8
  %call7 = invoke { ptr, i64 } @_ZSt9make_pairIPKcmESt4pairINSt25__strip_reference_wrapperINSt5decayIT_E4typeEE6__typeENS3_INS4_IT0_E4typeEE6__typeEEOS5_OSA_(ptr noundef nonnull align 8 dereferenceable(8) %ref.tmp2, ptr noundef nonnull align 8 dereferenceable(8) %ref.tmp3)
          to label %invoke.cont6 unwind label %lpad

invoke.cont6:                                     ; preds = %invoke.cont4
  %2 = getelementptr inbounds { ptr, i64 }, ptr %ref.tmp1, i32 0, i32 0
  %3 = extractvalue { ptr, i64 } %call7, 0
  store ptr %3, ptr %2, align 8
  %4 = getelementptr inbounds { ptr, i64 }, ptr %ref.tmp1, i32 0, i32 1
  %5 = extractvalue { ptr, i64 } %call7, 1
  store i64 %5, ptr %4, align 8
  invoke void @_ZNSt4pairIPKciEC2IS1_mTnNSt9enable_ifIXaaclsr6_PCCFPIT_T0_EE22_MoveConstructiblePairIS5_S6_EEclsr6_PCCFPIS5_S6_EE30_ImplicitlyMoveConvertiblePairIS5_S6_EEEbE4typeELb1EEEOS_IS5_S6_E(ptr noundef nonnull align 8 dereferenceable(12) %ref.tmp, ptr noundef nonnull align 8 dereferenceable(16) %ref.tmp1)
          to label %invoke.cont8 unwind label %lpad

invoke.cont8:                                     ; preds = %invoke.cont6
  invoke void @_ZN8facebook5velox8encoding6Base649decodeUrlERKSt4pairIPKciERNSt7__cxx1112basic_stringIcSt11char_traitsIcESaIcEEE(ptr noundef nonnull align 8 dereferenceable(12) %ref.tmp, ptr noundef nonnull align 8 dereferenceable(32) %agg.result)
          to label %invoke.cont9 unwind label %lpad

invoke.cont9:                                     ; preds = %invoke.cont8
  store i1 true, ptr %nrvo, align 1
  %nrvo.val = load i1, ptr %nrvo, align 1
  br i1 %nrvo.val, label %nrvo.skipdtor, label %nrvo.unused

lpad:                                             ; preds = %invoke.cont8, %invoke.cont6, %invoke.cont4, %invoke.cont, %entry
  %6 = landingpad { ptr, i32 }
          cleanup
  %7 = extractvalue { ptr, i32 } %6, 0
  store ptr %7, ptr %exn.slot, align 8
  %8 = extractvalue { ptr, i32 } %6, 1
  store i32 %8, ptr %ehselector.slot, align 4
  call void @_ZNSt7__cxx1112basic_stringIcSt11char_traitsIcESaIcEED1Ev(ptr noundef nonnull align 8 dereferenceable(32) %agg.result) #8
  br label %eh.resume

nrvo.unused:                                      ; preds = %invoke.cont9
  call void @_ZNSt7__cxx1112basic_stringIcSt11char_traitsIcESaIcEED1Ev(ptr noundef nonnull align 8 dereferenceable(32) %agg.result) #8
  br label %nrvo.skipdtor

nrvo.skipdtor:                                    ; preds = %nrvo.unused, %invoke.cont9
  ret void

eh.resume:                                        ; preds = %lpad
  %exn = load ptr, ptr %exn.slot, align 8
  %sel = load i32, ptr %ehselector.slot, align 4
  %lpad.val = insertvalue { ptr, i32 } poison, ptr %exn, 0
  %lpad.val10 = insertvalue { ptr, i32 } %lpad.val, i32 %sel, 1
  resume { ptr, i32 } %lpad.val10
}